target datalayout = "e-m:e-p270:32:32-p271:32:32-p272:64:64-i64:64-i128:128-f80:128-n8:16:32:64-S128"
target triple = "x86_64-pc-linux-gnu"

%"class.Stockfish::Position" = type <{ [64 x i32], [8 x i64], [2 x i64], [16 x i32], [64 x i32], [16 x i32], [16 x i64], ptr, i32, i32, i8, [7 x i8] }>
%"struct.Stockfish::StateInfo" = type { i64, i64, [2 x i32], i32, i32, i32, i32, i64, i64, ptr, [2 x i64], [2 x i64], [8 x i64], i32, i32, [24 x i8], %"struct.Stockfish::Eval::NNUE::Accumulator", %"struct.Stockfish::Eval::NNUE::Accumulator.16", %"struct.Stockfish::DirtyPiece", [24 x i8] }
%"struct.Stockfish::Eval::NNUE::Accumulator" = type { [2 x [2560 x i16]], [2 x [8 x i32]], [2 x i8], [2 x i8], [60 x i8] }
%"struct.Stockfish::Eval::NNUE::Accumulator.16" = type { [2 x [128 x i16]], [2 x [8 x i32]], [2 x i8], [2 x i8], [60 x i8] }
%"struct.Stockfish::DirtyPiece" = type { i32, [3 x i32], [3 x i32], [3 x i32] }

; Function Attrs: mustprogress nounwind uwtable
define linkonce_odr dso_local noundef i32 @_ZN9Stockfish10make_pieceENS_5ColorENS_9PieceTypeE(i32 noundef %0, i32 noundef %1) #4 comdat {
  %3 = alloca i32, align 4
  %4 = alloca i32, align 4
  store i32 %0, ptr %3, align 4
  store i32 %1, ptr %4, align 4
  %5 = load i32, ptr %3, align 4
  %6 = shl i32 %5, 3
  %7 = load i32, ptr %4, align 4
  %8 = add nsw i32 %6, %7
  ret i32 %8
}

; Function Attrs: mustprogress nounwind uwtable
define linkonce_odr dso_local noundef nonnull align 4 dereferenceable(4) ptr @_ZSt3minIiERKT_S2_S2_(ptr noundef nonnull align 4 dereferenceable(4) %0, ptr noundef nonnull align 4 dereferenceable(4) %1) #4 comdat {
  %3 = alloca ptr, align 8
  %4 = alloca ptr, align 8
  %5 = alloca ptr, align 8
  store ptr %0, ptr %4, align 8
  store ptr %1, ptr %5, align 8
  %6 = load ptr, ptr %5, align 8
  %7 = load i32, ptr %6, align 4
  %8 = load ptr, ptr %4, align 8
  %9 = load i32, ptr %8, align 4
  %10 = icmp slt i32 %7, %9
  br i1 %10, label %11, label %13

11:                                               ; preds = %2
  %12 = load ptr, ptr %5, align 8
  store ptr %12, ptr %3, align 8
  br label %15

13:                                               ; preds = %2
  %14 = load ptr, ptr %4, align 8
  store ptr %14, ptr %3, align 8
  br label %15

15:                                               ; preds = %13, %11
  %16 = load ptr, ptr %3, align 8
  ret ptr %16
}

; Function Attrs: mustprogress nounwind uwtable
define linkonce_odr dso_local noundef nonnull align 4 dereferenceable(4) ptr @_ZSt3maxIiERKT_S2_S2_(ptr noundef nonnull align 4 dereferenceable(4) %0, ptr noundef nonnull align 4 dereferenceable(4) %1) #4 comdat {
  %3 = alloca ptr, align 8
  %4 = alloca ptr, align 8
  %5 = alloca ptr, align 8
  store ptr %0, ptr %4, align 8
  store ptr %1, ptr %5, align 8
  %6 = load ptr, ptr %4, align 8
  %7 = load i32, ptr %6, align 4
  %8 = load ptr, ptr %5, align 8
  %9 = load i32, ptr %8, align 4
  %10 = icmp slt i32 %7, %9
  br i1 %10, label %11, label %13

11:                                               ; preds = %2
  %12 = load ptr, ptr %5, align 8
  store ptr %12, ptr %3, align 8
  br label %15

13:                                               ; preds = %2
  %14 = load ptr, ptr %4, align 8
  store ptr %14, ptr %3, align 8
  br label %15

15:                                               ; preds = %13, %11
  %16 = load ptr, ptr %3, align 8
  ret ptr %16
}

; Function Attrs: mustprogress nounwind uwtable
define linkonce_odr dso_local noundef i32 @_ZNK9Stockfish8Position17non_pawn_materialENS_5ColorE(ptr noundef nonnull align 8 dereferenceable(865) %0, i32 noundef %1) #4 comdat align 2 {
  %3 = alloca ptr, align 8
  %4 = alloca i32, align 4
  store ptr %0, ptr %3, align 8
  store i32 %1, ptr %4, align 4
  %5 = load ptr, ptr %3, align 8
  %6 = getelementptr inbounds %"class.Stockfish::Position", ptr %5, i32 0, i32 7
  %7 = load ptr, ptr %6, align 8
  %8 = getelementptr inbounds %"struct.Stockfish::StateInfo", ptr %7, i32 0, i32 2
  %9 = load i32, ptr %4, align 4
  %10 = zext i32 %9 to i64
  %11 = getelementptr inbounds [2 x i32], ptr %8, i64 0, i64 %10
  %12 = load i32, ptr %11, align 4
  ret i32 %12
}

; Function Attrs: mustprogress nounwind uwtable
define linkonce_odr dso_local noundef i32 @_ZN9StockfishcoENS_5ColorE(i32 noundef %0) #4 comdat {
  %2 = alloca i32, align 4
  store i32 %0, ptr %2, align 4
  %3 = load i32, ptr %2, align 4
  %4 = xor i32 %3, 1
  ret i32 %4
}

; Function Attrs: mustprogress nounwind uwtable
define linkonce_odr dso_local noundef i32 @_ZNK9Stockfish8Position5countILNS_9PieceTypeE1EEEiNS_5ColorE(ptr noundef nonnull align 8 dereferenceable(865) %0, i32 noundef %1) #4 comdat align 2 {
  %3 = alloca ptr, align 8
  %4 = alloca i32, align 4
  store ptr %0, ptr %3, align 8
  store i32 %1, ptr %4, align 4
  %5 = load ptr, ptr %3, align 8
  %6 = getelementptr inbounds %"class.Stockfish::Position", ptr %5, i32 0, i32 3
  %7 = load i32, ptr %4, align 4
  %8 = call noundef i32 @_ZN9Stockfish10make_pieceENS_5ColorENS_9PieceTypeE(i32 noundef %7, i32 noundef 1)
  %9 = zext i32 %8 to i64
  %10 = getelementptr inbounds [16 x i32], ptr %6, i64 0, i64 %9
  %11 = load i32, ptr %10, align 4
  ret i32 %11
}

; Function Attrs: mustprogress nounwind uwtable
define linkonce_odr dso_local noundef nonnull align 4 dereferenceable(4) ptr @_ZSt5clampIiERKT_S2_S2_S2_(ptr noundef nonnull align 4 dereferenceable(4) %0, ptr noundef nonnull align 4 dereferenceable(4) %1, ptr noundef nonnull align 4 dereferenceable(4) %2) #4 comdat {
  %4 = alloca ptr, align 8
  %5 = alloca ptr, align 8
  %6 = alloca ptr, align 8
  store ptr %0, ptr %4, align 8
  store ptr %1, ptr %5, align 8
  store ptr %2, ptr %6, align 8
  br label %7

7:                                                ; preds = %3
  br label %8

8:                                                ; preds = %7
  %9 = load ptr, ptr %4, align 8
  %10 = load ptr, ptr %5, align 8
  %11 = call noundef nonnull align 4 dereferenceable(4) ptr @_ZSt3maxIiERKT_S2_S2_(ptr noundef nonnull align 4 dereferenceable(4) %9, ptr noundef nonnull align 4 dereferenceable(4) %10)
  %12 = load ptr, ptr %6, align 8
  %13 = call noundef nonnull align 4 dereferenceable(4) ptr @_ZSt3minIiERKT_S2_S2_(ptr noundef nonnull align 4 dereferenceable(4) %11, ptr noundef nonnull align 4 dereferenceable(4) %12)
  ret ptr %13
}

; Function Attrs: mustprogress nounwind uwtable
define linkonce_odr dso_local noundef i32 @_ZNK9Stockfish8Position12rule50_countEv(ptr noundef nonnull align 8 dereferenceable(865) %0) #4 comdat align 2 {
  %2 = alloca ptr, align 8
  store ptr %0, ptr %2, align 8
  %3 = load ptr, ptr %2, align 8
  %4 = getelementptr inbounds %"class.Stockfish::Position", ptr %3, i32 0, i32 7
  %5 = load ptr, ptr %4, align 8
  %6 = getelementptr inbounds %"struct.Stockfish::StateInfo", ptr %5, i32 0, i32 4
  %7 = load i32, ptr %6, align 4
  ret i32 %7
}

; Function Attrs: mustprogress nounwind uwtable
define linkonce_odr dso_local noundef i32 @_ZNK9Stockfish8Position5countILNS_9PieceTypeE1EEEiv(ptr noundef nonnull align 8 dereferenceable(865) %0) #4 comdat align 2 {
  %2 = alloca ptr, align 8
  store ptr %0, ptr %2, align 8
  %3 = load ptr, ptr %2, align 8
  %4 = call noundef i32 @_ZNK9Stockfish8Position5countILNS_9PieceTypeE1EEEiNS_5ColorE(ptr noundef nonnull align 8 dereferenceable(865) %3, i32 noundef 0)
  %5 = call noundef i32 @_ZNK9Stockfish8Position5countILNS_9PieceTypeE1EEEiNS_5ColorE(ptr noundef nonnull align 8 dereferenceable(865) %3, i32 noundef 1)
  %6 = add nsw i32 %4, %5
  ret i32 %6
}

; Function Attrs: mustprogress nounwind uwtable
define linkonce_odr dso_local noundef i32 @_ZNK9Stockfish8Position17non_pawn_materialEv(ptr noundef nonnull align 8 dereferenceable(865) %0) #4 comdat align 2 {
  %2 = alloca ptr, align 8
  store ptr %0, ptr %2, align 8
  %3 = load ptr, ptr %2, align 8
  %4 = call noundef i32 @_ZNK9Stockfish8Position17non_pawn_materialENS_5ColorE(ptr noundef nonnull align 8 dereferenceable(865) %3, i32 noundef 0)
  %5 = call noundef i32 @_ZNK9Stockfish8Position17non_pawn_materialENS_5ColorE(ptr noundef nonnull align 8 dereferenceable(865) %3, i32 noundef 1)
  %6 = add nsw i32 %4, %5
  ret i32 %6
}

; Function Attrs: mustprogress nounwind uwtable
define dso_local noundef i32 @_ZN9Stockfish4Eval11simple_evalERKNS_8PositionENS_5ColorE(ptr noundef nonnull align 8 dereferenceable(865) %0, i32 noundef %1) #4 {
  %3 = alloca ptr, align 8
  %4 = alloca i32, align 4
  store ptr %0, ptr %3, align 8
  store i32 %1, ptr %4, align 4
  %5 = load ptr, ptr %3, align 8
  %6 = load i32, ptr %4, align 4
  %7 = call noundef i32 @_ZNK9Stockfish8Position5countILNS_9PieceTypeE1EEEiNS_5ColorE(ptr noundef nonnull align 8 dereferenceable(865) %5, i32 noundef %6)
  %8 = load ptr, ptr %3, align 8
  %9 = load i32, ptr %4, align 4
  %10 = call noundef i32 @_ZN9StockfishcoENS_5ColorE(i32 noundef %9)
  %11 = call noundef i32 @_ZNK9Stockfish8Position5countILNS_9PieceTypeE1EEEiNS_5ColorE(ptr noundef nonnull align 8 dereferenceable(865) %8, i32 noundef %10)
  %12 = sub nsw i32 %7, %11
  %13 = mul nsw i32 208, %12
  %14 = load ptr, ptr %3, align 8
  %15 = load i32, ptr %4, align 4
  %16 = call noundef i32 @_ZNK9Stockfish8Position17non_pawn_materialENS_5ColorE(ptr noundef nonnull align 8 dereferenceable(865) %14, i32 noundef %15)
  %17 = load ptr, ptr %3, align 8
  %18 = load i32, ptr %4, align 4
  %19 = call noundef i32 @_ZN9StockfishcoENS_5ColorE(i32 noundef %18)
  %20 = call noundef i32 @_ZNK9Stockfish8Position17non_pawn_materialENS_5ColorE(ptr noundef nonnull align 8 dereferenceable(865) %17, i32 noundef %19)
  %21 = sub nsw i32 %16, %20
  %22 = add nsw i32 %13, %21
  ret i32 %22
}

; Function Attrs: mustprogress nounwind uwtable
define linkonce_odr dso_local noundef i32 @_ZNK9Stockfish8Position12side_to_moveEv(ptr noundef nonnull align 8 dereferenceable(865) %0) #4 comdat align 2 {
  %2 = alloca ptr, align 8
  store ptr %0, ptr %2, align 8
  %3 = load ptr, ptr %2, align 8
  %4 = getelementptr inbounds %"class.Stockfish::Position", ptr %3, i32 0, i32 9
  %5 = load i32, ptr %4, align 4
  ret i32 %5
}

; Function Attrs: mustprogress nounwind uwtable
define dso_local noundef i32 @_ZN9Stockfish4Eval8evaluateERKNS_8PositionEi(ptr noundef nonnull align 8 dereferenceable(865) %0, i32 noundef %1) #4 {
  %3 = alloca ptr, align 8
  %4 = alloca i32, align 4
  %5 = alloca i32, align 4
  %6 = alloca i8, align 1
  %7 = alloca i8, align 1
  %8 = alloca i32, align 4
  %9 = alloca i32, align 4
  %10 = alloca i32, align 4
  %11 = alloca i32, align 4
  %12 = alloca i32, align 4
  %13 = alloca i32, align 4
  %14 = alloca i32, align 4
  store ptr %0, ptr %3, align 8
  store i32 %1, ptr %4, align 4
  %15 = load ptr, ptr %3, align 8
  %16 = load ptr, ptr %3, align 8
  %17 = call noundef i32 @_ZNK9Stockfish8Position12side_to_moveEv(ptr noundef nonnull align 8 dereferenceable(865) %16)
  %18 = call noundef i32 @_ZN9Stockfish4Eval11simple_evalERKNS_8PositionENS_5ColorE(ptr noundef nonnull align 8 dereferenceable(865) %15, i32 noundef %17)
  store i32 %18, ptr %5, align 4
  %19 = load i32, ptr %5, align 4
  %20 = call i32 @llvm.abs.i32(i32 %19, i1 true)
  %21 = icmp sgt i32 %20, 1050
  %22 = zext i1 %21 to i8
  store i8 %22, ptr %6, align 1
  %23 = load i32, ptr %5, align 4
  %24 = call i32 @llvm.abs.i32(i32 %23, i1 true)
  %25 = icmp sgt i32 %24, 2500
  %26 = zext i1 %25 to i8
  store i8 %26, ptr %7, align 1
  %27 = load i8, ptr %6, align 1
  %28 = trunc i8 %27 to i1
  br i1 %28, label %29, label %34

29:                                               ; preds = %2
  %30 = load ptr, ptr %3, align 8
  %31 = load i8, ptr %7, align 1
  %32 = trunc i8 %31 to i1
  %33 = call noundef i32 @_ZN9Stockfish4Eval4NNUE8evaluateILNS1_7NetSizeE1EEEiRKNS_8PositionEbPib(ptr noundef nonnull align 8 dereferenceable(865) %30, i1 noundef zeroext true, ptr noundef %8, i1 noundef zeroext %32)
  br label %37

34:                                               ; preds = %2
  %35 = load ptr, ptr %3, align 8
  %36 = call noundef i32 @_ZN9Stockfish4Eval4NNUE8evaluateILNS1_7NetSizeE0EEEiRKNS_8PositionEbPib(ptr noundef nonnull align 8 dereferenceable(865) %35, i1 noundef zeroext true, ptr noundef %8, i1 noundef zeroext false)
  br label %37

37:                                               ; preds = %34, %29
  %38 = phi i32 [ %33, %29 ], [ %36, %34 ]
  store i32 %38, ptr %9, align 4
  %39 = load i32, ptr %4, align 4
  %40 = load i32, ptr %8, align 4
  %41 = load i32, ptr %5, align 4
  %42 = load i32, ptr %9, align 4
  %43 = sub nsw i32 %41, %42
  %44 = call i32 @llvm.abs.i32(i32 %43, i1 true)
  %45 = add nsw i32 %40, %44
  %46 = mul nsw i32 %39, %45
  %47 = sdiv i32 %46, 512
  %48 = load i32, ptr %4, align 4
  %49 = add nsw i32 %48, %47
  store i32 %49, ptr %4, align 4
  %50 = load i32, ptr %9, align 4
  %51 = load i32, ptr %8, align 4
  %52 = load i32, ptr %5, align 4
  %53 = load i32, ptr %9, align 4
  %54 = sub nsw i32 %52, %53
  %55 = call i32 @llvm.abs.i32(i32 %54, i1 true)
  %56 = add nsw i32 %51, %55
  %57 = mul nsw i32 %50, %56
  %58 = sdiv i32 %57, 32768
  %59 = load i32, ptr %9, align 4
  %60 = sub nsw i32 %59, %58
  store i32 %60, ptr %9, align 4
  %61 = load ptr, ptr %3, align 8
  %62 = call noundef i32 @_ZNK9Stockfish8Position17non_pawn_materialEv(ptr noundef nonnull align 8 dereferenceable(865) %61)
  %63 = sdiv i32 %62, 64
  store i32 %63, ptr %10, align 4
  %64 = load i32, ptr %9, align 4
  %65 = load i32, ptr %10, align 4
  %66 = add nsw i32 915, %65
  %67 = load ptr, ptr %3, align 8
  %68 = call noundef i32 @_ZNK9Stockfish8Position5countILNS_9PieceTypeE1EEEiv(ptr noundef nonnull align 8 dereferenceable(865) %67)
  %69 = mul nsw i32 9, %68
  %70 = add nsw i32 %66, %69
  %71 = mul nsw i32 %64, %70
  %72 = load i32, ptr %4, align 4
  %73 = load i32, ptr %10, align 4
  %74 = add nsw i32 154, %73
  %75 = mul nsw i32 %72, %74
  %76 = add nsw i32 %71, %75
  %77 = sdiv i32 %76, 1024
  store i32 %77, ptr %11, align 4
  %78 = load ptr, ptr %3, align 8
  %79 = call noundef i32 @_ZNK9Stockfish8Position12rule50_countEv(ptr noundef nonnull align 8 dereferenceable(865) %78)
  store i32 %79, ptr %12, align 4
  %80 = load i32, ptr %11, align 4
  %81 = load i32, ptr %12, align 4
  %82 = sub nsw i32 200, %81
  %83 = mul nsw i32 %80, %82
  %84 = sdiv i32 %83, 214
  store i32 %84, ptr %11, align 4
  store i32 -31506, ptr %13, align 4
  store i32 31506, ptr %14, align 4
  %85 = call noundef nonnull align 4 dereferenceable(4) ptr @_ZSt5clampIiERKT_S2_S2_S2_(ptr noundef nonnull align 4 dereferenceable(4) %11, ptr noundef nonnull align 4 dereferenceable(4) %13, ptr noundef nonnull align 4 dereferenceable(4) %14)
  %86 = load i32, ptr %85, align 4
  store i32 %86, ptr %11, align 4
  %87 = load i32, ptr %11, align 4
  ret i32 %87
}