; Function Attrs: mustprogress nounwind uwtable
define dso_local noundef i32 @_ZN9Stockfish4Eval8evaluateERKNS_8PositionEi(ptr noundef nonnull align 8 dereferenceable(865) %0, i32 noundef %1) local_unnamed_addr #3 {
  %3 = alloca i32, align 4
  %4 = getelementptr inbounds i8, ptr %0, i64 860
  %5 = load i32, ptr %4, align 4
  %6 = getelementptr inbounds i8, ptr %0, i64 336
  %7 = shl i32 %5, 3
  %8 = or disjoint i32 %7, 1
  %9 = zext i32 %8 to i64
  %10 = getelementptr inbounds [16 x i32], ptr %6, i64 0, i64 %9
  %11 = load i32, ptr %10, align 4
  %12 = xor i32 %5, 1
  %13 = shl i32 %12, 3
  %14 = or disjoint i32 %13, 1
  %15 = zext i32 %14 to i64
  %16 = getelementptr inbounds [16 x i32], ptr %6, i64 0, i64 %15
  %17 = load i32, ptr %16, align 4
  %18 = sub nsw i32 %11, %17
  %19 = mul nsw i32 %18, 208
  %20 = getelementptr inbounds i8, ptr %0, i64 848
  %21 = load ptr, ptr %20, align 8
  %22 = getelementptr inbounds i8, ptr %21, i64 16
  %23 = zext i32 %5 to i64
  %24 = getelementptr inbounds [2 x i32], ptr %22, i64 0, i64 %23
  %25 = load i32, ptr %24, align 4
  %26 = zext i32 %12 to i64
  %27 = getelementptr inbounds [2 x i32], ptr %22, i64 0, i64 %26
  %28 = load i32, ptr %27, align 4
  %29 = add i32 %19, %25
  %30 = sub i32 %29, %28
  %31 = tail call i32 @llvm.abs.i32(i32 %30, i1 true)
  %32 = icmp ugt i32 %31, 1050
  br i1 %32, label %33, label %36

33:                                               ; preds = %2
  %34 = icmp ugt i32 %31, 2500
  %35 = call noundef i32 @_ZN9Stockfish4Eval4NNUE8evaluateILNS1_7NetSizeE1EEEiRKNS_8PositionEbPib(ptr noundef nonnull align 8 dereferenceable(865) %0, i1 noundef zeroext true, ptr noundef nonnull %3, i1 noundef zeroext %34) #17
  br label %38

36:                                               ; preds = %2
  %37 = call noundef i32 @_ZN9Stockfish4Eval4NNUE8evaluateILNS1_7NetSizeE0EEEiRKNS_8PositionEbPib(ptr noundef nonnull align 8 dereferenceable(865) %0, i1 noundef zeroext true, ptr noundef nonnull %3, i1 noundef zeroext false) #17
  br label %38

38:                                               ; preds = %36, %33
  %39 = phi i32 [ %35, %33 ], [ %37, %36 ]
  %40 = load i32, ptr %3, align 4
  %41 = sub nsw i32 %30, %39
  %42 = call i32 @llvm.abs.i32(i32 %41, i1 true)
  %43 = add nsw i32 %42, %40
  %44 = mul nsw i32 %43, %1
  %45 = sdiv i32 %44, 512
  %46 = add nsw i32 %45, %1
  %47 = mul nsw i32 %43, %39
  %.neg = sdiv i32 %47, -32768
  %48 = add i32 %.neg, %39
  %49 = load ptr, ptr %20, align 8
  %50 = getelementptr inbounds i8, ptr %49, i64 16
  %51 = load i32, ptr %50, align 4
  %52 = getelementptr inbounds i8, ptr %49, i64 20
  %53 = load i32, ptr %52, align 4
  %54 = add nsw i32 %53, %51
  %55 = sdiv i32 %54, 64
  %56 = add nsw i32 %55, 915
  %57 = getelementptr inbounds i8, ptr %0, i64 340
  %58 = load i32, ptr %57, align 4
  %59 = getelementptr inbounds i8, ptr %0, i64 372
  %60 = load i32, ptr %59, align 4
  %61 = add nsw i32 %60, %58
  %62 = mul nsw i32 %61, 9
  %63 = add nsw i32 %56, %62
  %64 = mul nsw i32 %63, %48
  %65 = add nsw i32 %55, 154
  %66 = mul nsw i32 %65, %46
  %67 = add nsw i32 %64, %66
  %68 = sdiv i32 %67, 1024
  %69 = getelementptr inbounds i8, ptr %49, i64 28
  %70 = load i32, ptr %69, align 4
  %71 = sub nsw i32 200, %70
  %72 = mul nsw i32 %68, %71
  %73 = sdiv i32 %72, 214
  %.sroa.speculate.load.false.sroa.speculated = call i32 @llvm.smax.i32(i32 %73, i32 -31506)
  %.sroa.speculated = call i32 @llvm.smin.i32(i32 %.sroa.speculate.load.false.sroa.speculated, i32 31506)
  ret i32 %.sroa.speculated
}